; Function Attrs: nounwind uwtable
define void @agedgeattr_delete(ptr noundef %0) local_unnamed_addr #0 {
  %2 = load ptr, ptr @AgDataRecName, align 8, !tbaa !15
  %3 = tail call ptr @aggetrec(ptr noundef %0, ptr noundef %2, i32 noundef 0) #12
  %.not = icmp eq ptr %3, null
  br i1 %.not, label %7, label %4

4:                                                ; preds = %1
  tail call fastcc void @freeattr(ptr noundef %0, ptr noundef %3)
  %5 = load ptr, ptr @AgDataRecName, align 8, !tbaa !15
  %6 = tail call i32 @agdelrec(ptr noundef %0, ptr noundef %5) #12
  br label %7

7:                                                ; preds = %4, %1
  ret void
}